; Function Attrs: nounwind uwtable
define hidden i32 @lsarpc_dissect_struct_lsa_DnsDomainInfo(ptr noundef %0, i32 noundef %1, ptr noundef %2, ptr noundef %3, ptr noundef %4, ptr noundef %5, i32 noundef %6, i32 %7) local_unnamed_addr #0 {
  %9 = getelementptr inbounds nuw i8, ptr %4, i64 72
  %10 = load ptr, ptr %9, align 8
  %11 = getelementptr inbounds nuw i8, ptr %10, i64 96
  %12 = load i32, ptr %11, align 8
  %13 = and i32 %12, 1
  %.not = icmp eq i32 %13, 0
  %14 = getelementptr inbounds nuw i8, ptr %4, i64 28
  %15 = load i32, ptr %14, align 4
  %.not58 = icmp ne i32 %15, 0
  br i1 %.not, label %21, label %16

16:                                               ; preds = %8
  %17 = and i32 %1, 7
  %.not61 = icmp eq i32 %17, 0
  %or.cond = or i1 %.not61, %.not58
  br i1 %or.cond, label %26, label %18

18:                                               ; preds = %16
  %19 = and i32 %1, -8
  %20 = add i32 %19, 8
  br label %26

21:                                               ; preds = %8
  %22 = and i32 %1, 3
  %.not59 = icmp eq i32 %22, 0
  %or.cond66 = or i1 %.not59, %.not58
  br i1 %or.cond66, label %26, label %23

23:                                               ; preds = %21
  %24 = and i32 %1, -4
  %25 = add i32 %24, 4
  br label %26

26:                                               ; preds = %21, %23, %16, %18
  %.0 = phi i32 [ %1, %16 ], [ %20, %18 ], [ %1, %21 ], [ %25, %23 ]
  %.not62 = icmp eq ptr %3, null
  br i1 %.not62, label %31, label %27

27:                                               ; preds = %26
  %28 = tail call ptr @proto_tree_add_item(ptr noundef nonnull %3, i32 noundef %6, ptr noundef %0, i32 noundef %.0, i32 noundef -1, i32 noundef 0) #5
  %29 = load i32, ptr @ett_lsarpc_lsa_DnsDomainInfo, align 4
  %30 = tail call ptr @proto_item_add_subtree(ptr noundef %28, i32 noundef %29) #5
  br label %31

31:                                               ; preds = %27, %26
  %.056 = phi ptr [ %28, %27 ], [ null, %26 ]
  %.055 = phi ptr [ %30, %27 ], [ null, %26 ]
  %32 = load i32, ptr @hf_lsarpc_lsa_DnsDomainInfo_name, align 4
  %33 = tail call i32 @lsarpc_dissect_struct_lsa_StringLarge(ptr noundef %0, i32 noundef %.0, ptr noundef %2, ptr noundef %.055, ptr noundef nonnull %4, ptr noundef %5, i32 noundef %32, i32 poison)
  %34 = load i32, ptr @hf_lsarpc_lsa_DnsDomainInfo_dns_domain, align 4
  %35 = tail call i32 @lsarpc_dissect_struct_lsa_StringLarge(ptr noundef %0, i32 noundef %33, ptr noundef %2, ptr noundef %.055, ptr noundef nonnull %4, ptr noundef %5, i32 noundef %34, i32 poison)
  %36 = load i32, ptr @hf_lsarpc_lsa_DnsDomainInfo_dns_forest, align 4
  %37 = tail call i32 @lsarpc_dissect_struct_lsa_StringLarge(ptr noundef %0, i32 noundef %35, ptr noundef %2, ptr noundef %.055, ptr noundef nonnull %4, ptr noundef %5, i32 noundef %36, i32 poison)
  %38 = load i32, ptr @hf_lsarpc_lsa_DnsDomainInfo_domain_guid, align 4
  %39 = tail call i32 @dissect_ndr_uuid_t(ptr noundef %0, i32 noundef %37, ptr noundef %2, ptr noundef %.055, ptr noundef nonnull %4, ptr noundef %5, i32 noundef %38, ptr noundef null) #5
  %40 = load i32, ptr @hf_lsarpc_lsa_DnsDomainInfo_sid, align 4
  %41 = tail call i32 @dissect_ndr_embedded_pointer(ptr noundef %0, i32 noundef %39, ptr noundef %2, ptr noundef %.055, ptr noundef nonnull %4, ptr noundef %5, ptr noundef nonnull @lsarpc_dissect_element_lsa_DnsDomainInfo_sid_, i32 noundef 2, ptr noundef nonnull @.str.880, i32 noundef %40) #5
  %42 = sub i32 %41, %.0
  tail call void @proto_item_set_len(ptr noundef %.056, i32 noundef %42) #5
  %43 = load ptr, ptr %9, align 8
  %44 = getelementptr inbounds nuw i8, ptr %43, i64 96
  %45 = load i32, ptr %44, align 8
  %46 = and i32 %45, 1
  %.not63 = icmp eq i32 %46, 0
  br i1 %.not63, label %54, label %47

47:                                               ; preds = %31
  %48 = getelementptr inbounds nuw i8, ptr %4, i64 28
  %49 = load i32, ptr %48, align 4
  %.not64 = icmp ne i32 %49, 0
  %50 = and i32 %41, 7
  %.not65 = icmp eq i32 %50, 0
  %or.cond67 = or i1 %.not65, %.not64
  br i1 %or.cond67, label %54, label %51

51:                                               ; preds = %47
  %52 = and i32 %41, -8
  %53 = add i32 %52, 8
  br label %54

54:                                               ; preds = %51, %47, %31
  %.1 = phi i32 [ %41, %47 ], [ %53, %51 ], [ %41, %31 ]
  ret i32 %.1
}